(i__main__
node
p0
(dp1
S'feature_word'
p2
I240
sS'right'
p3
(i__main__
node
p4
(dp5
g2
I16099
sg3
(i__main__
node
p6
(dp7
g2
I-1
sS'label'
p8
I1
sbsg8
I-1
sS'left'
p9
(i__main__
node
p10
(dp11
g2
I42250
sg3
(i__main__
node
p12
(dp13
g2
I-1
sg8
I1
sbsg8
I-1
sg9
(i__main__
node
p14
(dp15
g2
I9860
sg3
(i__main__
node
p16
(dp17
g2
I-1
sg8
I1
sbsg8
I-1
sg9
(i__main__
node
p18
(dp19
g2
I1707
sg3
(i__main__
node
p20
(dp21
g2
I-1
sg8
I1
sbsg8
I-1
sg9
(i__main__
node
p22
(dp23
g2
I37246
sg3
(i__main__
node
p24
(dp25
g2
I-1
sg8
I1
sbsg8
I-1
sg9
(i__main__
node
p26
(dp27
g2
I368
sg3
(i__main__
node
p28
(dp29
g2
I-1
sg8
I-1
sbsg8
I-1
sg9
(i__main__
node
p30
(dp31
g2
I1014
sg3
(i__main__
node
p32
(dp33
g2
I328
sg3
(i__main__
node
p34
(dp35
g2
I-1
sg8
I1
sbsg8
I-1
sg9
(i__main__
node
p36
(dp37
g2
I-1
sg8
I-1
sbsbsg8
I-1
sg9
(i__main__
node
p38
(dp39
g2
I328
sg3
(i__main__
node
p40
(dp41
g2
I-1
sg8
I-1
sbsg8
I-1
sg9
(i__main__
node
p42
(dp43
g2
I503
sg3
(i__main__
node
p44
(dp45
g2
I-1
sg8
I-1
sbsg8
I-1
sg9
(i__main__
node
p46
(dp47
g2
I760
sg3
(i__main__
node
p48
(dp49
g2
I-1
sg8
I-1
sbsg8
I-1
sg9
(i__main__
node
p50
(dp51
g2
I427
sg3
(i__main__
node
p52
(dp53
g2
I-1
sg8
I-1
sbsg8
I-1
sg9
(i__main__
node
p54
(dp55
g2
I422
sg3
(i__main__
node
p56
(dp57
g2
I-1
sg8
I-1
sbsg8
I-1
sg9
(i__main__
node
p58
(dp59
g2
I344
sg3
(i__main__
node
p60
(dp61
g2
I-1
sg8
I-1
sbsg8
I-1
sg9
(i__main__
node
p62
(dp63
g2
I622
sg3
(i__main__
node
p64
(dp65
g2
I-1
sg8
I-1
sbsg8
I-1
sg9
(i__main__
node
p66
(dp67
g2
I2290
sg3
(i__main__
node
p68
(dp69
g2
I-1
sg8
I-1
sbsg8
I-1
sg9
(i__main__
node
p70
(dp71
g2
I1173
sg3
(i__main__
node
p72
(dp73
g2
I-1
sg8
I-1
sbsg8
I-1
sg9
(i__main__
node
p74
(dp75
g2
I2532
sg3
(i__main__
node
p76
(dp77
g2
I-1
sg8
I-1
sbsg8
I-1
sg9
(i__main__
node
p78
(dp79
g2
I1270
sg3
(i__main__
node
p80
(dp81
g2
I-1
sg8
I-1
sbsg8
I-1
sg9
(i__main__
node
p82
(dp83
g2
I77355
sg3
(i__main__
node
p84
(dp85
g2
I-1
sg8
I-1
sbsg8
I-1
sg9
(i__main__
node
p86
(dp87
g2
I31845
sg3
(i__main__
node
p88
(dp89
g2
I-1
sg8
I-1
sbsg8
I-1
sg9
(i__main__
node
p90
(dp91
g2
I38755
sg3
(i__main__
node
p92
(dp93
g2
I-1
sg8
I-1
sbsg8
I-1
sg9
(i__main__
node
p94
(dp95
g2
I971
sg3
(i__main__
node
p96
(dp97
g2
I-1
sg8
I-1
sbsg8
I-1
sg9
(i__main__
node
p98
(dp99
g2
I3692
sg3
(i__main__
node
p100
(dp101
g2
I-1
sg8
I-1
sbsg8
I-1
sg9
(i__main__
node
p102
(dp103
g2
I1289
sg3
(i__main__
node
p104
(dp105
g2
I-1
sg8
I-1
sbsg8
I-1
sg9
(i__main__
node
p106
(dp107
g2
I5780
sg3
(i__main__
node
p108
(dp109
g2
I-1
sg8
I-1
sbsg8
I-1
sg9
(i__main__
node
p110
(dp111
g2
I35563
sg3
(i__main__
node
p112
(dp113
g2
I-1
sg8
I-1
sbsg8
I-1
sg9
(i__main__
node
p114
(dp115
g2
I2289
sg3
(i__main__
node
p116
(dp117
g2
I-1
sg8
I-1
sbsg8
I-1
sg9
(i__main__
node
p118
(dp119
g2
I20580
sg3
(i__main__
node
p120
(dp121
g2
I-1
sg8
I-1
sbsg8
I-1
sg9
(i__main__
node
p122
(dp123
g2
I1285
sg3
(i__main__
node
p124
(dp125
g2
I-1
sg8
I-1
sbsg8
I-1
sg9
(i__main__
node
p126
(dp127
g2
I21649
sg3
(i__main__
node
p128
(dp129
g2
I-1
sg8
I-1
sbsg8
I-1
sg9
(i__main__
node
p130
(dp131
g2
I12720
sg3
(i__main__
node
p132
(dp133
g2
I-1
sg8
I-1
sbsg8
I-1
sg9
(i__main__
node
p134
(dp135
g2
I1897
sg3
(i__main__
node
p136
(dp137
g2
I-1
sg8
I-1
sbsg8
I-1
sg9
(i__main__
node
p138
(dp139
g2
I-1
sg8
I-1
sbsbsbsbsbsbsbsbsbsbsbsbsbsbsbsbsbsbsbsbsbsbsbsbsbsbsbsbsbsbsbsbsbsg8
I-1
sg9
(i__main__
node
p140
(dp141
g2
I373
sg3
(i__main__
node
p142
(dp143
g2
I69366
sg3
(i__main__
node
p144
(dp145
g2
I-1
sg8
I1
sbsg8
I-1
sg9
(i__main__
node
p146
(dp147
g2
I3692
sg3
(i__main__
node
p148
(dp149
g2
I-1
sg8
I1
sbsg8
I-1
sg9
(i__main__
node
p150
(dp151
g2
I5221
sg3
(i__main__
node
p152
(dp153
g2
I-1
sg8
I1
sbsg8
I-1
sg9
(i__main__
node
p154
(dp155
g2
I34315
sg3
(i__main__
node
p156
(dp157
g2
I-1
sg8
I1
sbsg8
I-1
sg9
(i__main__
node
p158
(dp159
g2
I1844
sg3
(i__main__
node
p160
(dp161
g2
I363
sg3
(i__main__
node
p162
(dp163
g2
I-1
sg8
I1
sbsg8
I-1
sg9
(i__main__
node
p164
(dp165
g2
I-1
sg8
I-1
sbsbsg8
I-1
sg9
(i__main__
node
p166
(dp167
g2
I328
sg3
(i__main__
node
p168
(dp169
g2
I-1
sg8
I-1
sbsg8
I-1
sg9
(i__main__
node
p170
(dp171
g2
I584
sg3
(i__main__
node
p172
(dp173
g2
I-1
sg8
I-1
sbsg8
I-1
sg9
(i__main__
node
p174
(dp175
g2
I1014
sg3
(i__main__
node
p176
(dp177
g2
I-1
sg8
I-1
sbsg8
I-1
sg9
(i__main__
node
p178
(dp179
g2
I503
sg3
(i__main__
node
p180
(dp181
g2
I-1
sg8
I-1
sbsg8
I-1
sg9
(i__main__
node
p182
(dp183
g2
I971
sg3
(i__main__
node
p184
(dp185
g2
I-1
sg8
I-1
sbsg8
I-1
sg9
(i__main__
node
p186
(dp187
g2
I906
sg3
(i__main__
node
p188
(dp189
g2
I-1
sg8
I-1
sbsg8
I-1
sg9
(i__main__
node
p190
(dp191
g2
I1173
sg3
(i__main__
node
p192
(dp193
g2
I-1
sg8
I-1
sbsg8
I-1
sg9
(i__main__
node
p194
(dp195
g2
I2362
sg3
(i__main__
node
p196
(dp197
g2
I-1
sg8
I-1
sbsg8
I-1
sg9
(i__main__
node
p198
(dp199
g2
I19385
sg3
(i__main__
node
p200
(dp201
g2
I-1
sg8
I-1
sbsg8
I-1
sg9
(i__main__
node
p202
(dp203
g2
I8224
sg3
(i__main__
node
p204
(dp205
g2
I-1
sg8
I-1
sbsg8
I-1
sg9
(i__main__
node
p206
(dp207
g2
I9004
sg3
(i__main__
node
p208
(dp209
g2
I-1
sg8
I-1
sbsg8
I-1
sg9
(i__main__
node
p210
(dp211
g2
I37246
sg3
(i__main__
node
p212
(dp213
g2
I-1
sg8
I-1
sbsg8
I-1
sg9
(i__main__
node
p214
(dp215
g2
I1893
sg3
(i__main__
node
p216
(dp217
g2
I-1
sg8
I-1
sbsg8
I-1
sg9
(i__main__
node
p218
(dp219
g2
I3969
sg3
(i__main__
node
p220
(dp221
g2
I-1
sg8
I-1
sbsg8
I-1
sg9
(i__main__
node
p222
(dp223
g2
I14274
sg3
(i__main__
node
p224
(dp225
g2
I-1
sg8
I-1
sbsg8
I-1
sg9
(i__main__
node
p226
(dp227
g2
I10125
sg3
(i__main__
node
p228
(dp229
g2
I-1
sg8
I-1
sbsg8
I-1
sg9
(i__main__
node
p230
(dp231
g2
I4323
sg3
(i__main__
node
p232
(dp233
g2
I-1
sg8
I-1
sbsg8
I-1
sg9
(i__main__
node
p234
(dp235
g2
I760
sg3
(i__main__
node
p236
(dp237
g2
I-1
sg8
I-1
sbsg8
I-1
sg9
(i__main__
node
p238
(dp239
g2
I813
sg3
(i__main__
node
p240
(dp241
g2
I-1
sg8
I-1
sbsg8
I-1
sg9
(i__main__
node
p242
(dp243
g2
I1270
sg3
(i__main__
node
p244
(dp245
g2
I-1
sg8
I-1
sbsg8
I-1
sg9
(i__main__
node
p246
(dp247
g2
I10522
sg3
(i__main__
node
p248
(dp249
g2
I-1
sg8
I-1
sbsg8
I-1
sg9
(i__main__
node
p250
(dp251
g2
I-1
sg8
I-1
sbsbsbsbsbsbsbsbsbsbsbsbsbsbsbsbsbsbsbsbsbsbsbsbsbsbsbsg8
I1
sg9
(i__main__
node
p252
(dp253
g2
I427
sg3
(i__main__
node
p254
(dp255
g2
I7262
sg3
(i__main__
node
p256
(dp257
g2
I-1
sg8
I1
sbsg8
I-1
sg9
(i__main__
node
p258
(dp259
g2
I78228
sg3
(i__main__
node
p260
(dp261
g2
I-1
sg8
I1
sbsg8
I-1
sg9
(i__main__
node
p262
(dp263
g2
I14798
sg3
(i__main__
node
p264
(dp265
g2
I-1
sg8
I1
sbsg8
I-1
sg9
(i__main__
node
p266
(dp267
g2
I363
sg3
(i__main__
node
p268
(dp269
g2
I-1
sg8
I-1
sbsg8
I-1
sg9
(i__main__
node
p270
(dp271
g2
I1103
sg3
(i__main__
node
p272
(dp273
g2
I-1
sg8
I-1
sbsg8
I-1
sg9
(i__main__
node
p274
(dp275
g2
I1179
sg3
(i__main__
node
p276
(dp277
g2
I-1
sg8
I-1
sbsg8
I-1
sg9
(i__main__
node
p278
(dp279
g2
I368
sg3
(i__main__
node
p280
(dp281
g2
I-1
sg8
I-1
sbsg8
I-1
sg9
(i__main__
node
p282
(dp283
g2
I1893
sg3
(i__main__
node
p284
(dp285
g2
I-1
sg8
I-1
sbsg8
I-1
sg9
(i__main__
node
p286
(dp287
g2
I422
sg3
(i__main__
node
p288
(dp289
g2
I-1
sg8
I-1
sbsg8
I-1
sg9
(i__main__
node
p290
(dp291
g2
I2922
sg3
(i__main__
node
p292
(dp293
g2
I-1
sg8
I-1
sbsg8
I-1
sg9
(i__main__
node
p294
(dp295
g2
I5885
sg3
(i__main__
node
p296
(dp297
g2
I-1
sg8
I-1
sbsg8
I-1
sg9
(i__main__
node
p298
(dp299
g2
I503
sg3
(i__main__
node
p300
(dp301
g2
I-1
sg8
I-1
sbsg8
I-1
sg9
(i__main__
node
p302
(dp303
g2
I2235
sg3
(i__main__
node
p304
(dp305
g2
I-1
sg8
I-1
sbsg8
I-1
sg9
(i__main__
node
p306
(dp307
g2
I971
sg3
(i__main__
node
p308
(dp309
g2
I-1
sg8
I-1
sbsg8
I-1
sg9
(i__main__
node
p310
(dp311
g2
I1289
sg3
(i__main__
node
p312
(dp313
g2
I-1
sg8
I-1
sbsg8
I-1
sg9
(i__main__
node
p314
(dp315
g2
I17663
sg3
(i__main__
node
p316
(dp317
g2
I-1
sg8
I-1
sbsg8
I-1
sg9
(i__main__
node
p318
(dp319
g2
I2187
sg3
(i__main__
node
p320
(dp321
g2
I-1
sg8
I-1
sbsg8
I-1
sg9
(i__main__
node
p322
(dp323
g2
I13235
sg3
(i__main__
node
p324
(dp325
g2
I-1
sg8
I-1
sbsg8
I-1
sg9
(i__main__
node
p326
(dp327
g2
I2120
sg3
(i__main__
node
p328
(dp329
g2
I-1
sg8
I-1
sbsg8
I-1
sg9
(i__main__
node
p330
(dp331
g2
I7967
sg3
(i__main__
node
p332
(dp333
g2
I-1
sg8
I-1
sbsg8
I-1
sg9
(i__main__
node
p334
(dp335
g2
I-1
sg8
I1
sbsbsbsbsbsbsbsbsbsbsbsbsbsbsbsbsbsbsbsbsbsg8
I1
sg9
(i__main__
node
p336
(dp337
g2
I897
sg3
(i__main__
node
p338
(dp339
g2
I82804
sg3
(i__main__
node
p340
(dp341
g2
I-1
sg8
I1
sbsg8
I-1
sg9
(i__main__
node
p342
(dp343
g2
I368
sg3
(i__main__
node
p344
(dp345
g2
I-1
sg8
I-1
sbsg8
I-1
sg9
(i__main__
node
p346
(dp347
g2
I328
sg3
(i__main__
node
p348
(dp349
g2
I-1
sg8
I-1
sbsg8
I-1
sg9
(i__main__
node
p350
(dp351
g2
I8556
sg3
(i__main__
node
p352
(dp353
g2
I-1
sg8
I-1
sbsg8
I-1
sg9
(i__main__
node
p354
(dp355
g2
I344
sg3
(i__main__
node
p356
(dp357
g2
I-1
sg8
I-1
sbsg8
I-1
sg9
(i__main__
node
p358
(dp359
g2
I1289
sg3
(i__main__
node
p360
(dp361
g2
I-1
sg8
I-1
sbsg8
I-1
sg9
(i__main__
node
p362
(dp363
g2
I2563
sg3
(i__main__
node
p364
(dp365
g2
I-1
sg8
I-1
sbsg8
I-1
sg9
(i__main__
node
p366
(dp367
g2
I14075
sg3
(i__main__
node
p368
(dp369
g2
I-1
sg8
I-1
sbsg8
I-1
sg9
(i__main__
node
p370
(dp371
g2
I422
sg3
(i__main__
node
p372
(dp373
g2
I-1
sg8
I-1
sbsg8
I-1
sg9
(i__main__
node
p374
(dp375
g2
I7814
sg3
(i__main__
node
p376
(dp377
g2
I-1
sg8
I-1
sbsg8
I-1
sg9
(i__main__
node
p378
(dp379
g2
I2068
sg3
(i__main__
node
p380
(dp381
g2
I-1
sg8
I-1
sbsg8
I-1
sg9
(i__main__
node
p382
(dp383
g2
I1270
sg3
(i__main__
node
p384
(dp385
g2
I-1
sg8
I-1
sbsg8
I-1
sg9
(i__main__
node
p386
(dp387
g2
I-1
sg8
I1
sbsbsbsbsbsbsbsbsbsbsbsbsbsg8
I1
sg9
(i__main__
node
p388
(dp389
g2
I1103
sg3
(i__main__
node
p390
(dp391
g2
I-1
sg8
I-1
sbsg8
I1
sg9
(i__main__
node
p392
(dp393
g2
I422
sg3
(i__main__
node
p394
(dp395
g2
I60269
sg3
(i__main__
node
p396
(dp397
g2
I-1
sg8
I1
sbsg8
I-1
sg9
(i__main__
node
p398
(dp399
g2
I1893
sg3
(i__main__
node
p400
(dp401
g2
I-1
sg8
I1
sbsg8
I-1
sg9
(i__main__
node
p402
(dp403
g2
I21992
sg3
(i__main__
node
p404
(dp405
g2
I-1
sg8
I1
sbsg8
I-1
sg9
(i__main__
node
p406
(dp407
g2
I1456
sg3
(i__main__
node
p408
(dp409
g2
I3564
sg3
(i__main__
node
p410
(dp411
g2
I-1
sg8
I-1
sbsg8
I-1
sg9
(i__main__
node
p412
(dp413
g2
I-1
sg8
I1
sbsbsg8
I-1
sg9
(i__main__
node
p414
(dp415
g2
I2187
sg3
(i__main__
node
p416
(dp417
g2
I-1
sg8
I-1
sbsg8
I-1
sg9
(i__main__
node
p418
(dp419
g2
I734
sg3
(i__main__
node
p420
(dp421
g2
I-1
sg8
I-1
sbsg8
I-1
sg9
(i__main__
node
p422
(dp423
g2
I584
sg3
(i__main__
node
p424
(dp425
g2
I-1
sg8
I-1
sbsg8
I-1
sg9
(i__main__
node
p426
(dp427
g2
I368
sg3
(i__main__
node
p428
(dp429
g2
I-1
sg8
I-1
sbsg8
I-1
sg9
(i__main__
node
p430
(dp431
g2
I1289
sg3
(i__main__
node
p432
(dp433
g2
I-1
sg8
I-1
sbsg8
I-1
sg9
(i__main__
node
p434
(dp435
g2
I856
sg3
(i__main__
node
p436
(dp437
g2
I-1
sg8
I-1
sbsg8
I-1
sg9
(i__main__
node
p438
(dp439
g2
I79692
sg3
(i__main__
node
p440
(dp441
g2
I-1
sg8
I-1
sbsg8
I-1
sg9
(i__main__
node
p442
(dp443
g2
I63324
sg3
(i__main__
node
p444
(dp445
g2
I-1
sg8
I-1
sbsg8
I-1
sg9
(i__main__
node
p446
(dp447
g2
I64800
sg3
(i__main__
node
p448
(dp449
g2
I-1
sg8
I-1
sbsg8
I-1
sg9
(i__main__
node
p450
(dp451
g2
I2467
sg3
(i__main__
node
p452
(dp453
g2
I-1
sg8
I-1
sbsg8
I-1
sg9
(i__main__
node
p454
(dp455
g2
I6821
sg3
(i__main__
node
p456
(dp457
g2
I-1
sg8
I-1
sbsg8
I-1
sg9
(i__main__
node
p458
(dp459
g2
I67335
sg3
(i__main__
node
p460
(dp461
g2
I-1
sg8
I-1
sbsg8
I-1
sg9
(i__main__
node
p462
(dp463
g2
I31749
sg3
(i__main__
node
p464
(dp465
g2
I-1
sg8
I-1
sbsg8
I-1
sg9
(i__main__
node
p466
(dp467
g2
I-1
sg8
I-1
sbsbsbsbsbsbsbsbsbsbsbsbsbsbsbsbsbsbsg8
I1
sg9
(i__main__
node
p468
(dp469
g2
I328
sg3
(i__main__
node
p470
(dp471
g2
I1285
sg3
(i__main__
node
p472
(dp473
g2
I-1
sg8
I-1
sbsg8
I-1
sg9
(i__main__
node
p474
(dp475
g2
I363
sg3
(i__main__
node
p476
(dp477
g2
I-1
sg8
I-1
sbsg8
I-1
sg9
(i__main__
node
p478
(dp479
g2
I584
sg3
(i__main__
node
p480
(dp481
g2
I-1
sg8
I-1
sbsg8
I-1
sg9
(i__main__
node
p482
(dp483
g2
I2563
sg3
(i__main__
node
p484
(dp485
g2
I-1
sg8
I-1
sbsg8
I-1
sg9
(i__main__
node
p486
(dp487
g2
I3182
sg3
(i__main__
node
p488
(dp489
g2
I-1
sg8
I-1
sbsg8
I-1
sg9
(i__main__
node
p490
(dp491
g2
I2252
sg3
(i__main__
node
p492
(dp493
g2
I-1
sg8
I-1
sbsg8
I-1
sg9
(i__main__
node
p494
(dp495
g2
I856
sg3
(i__main__
node
p496
(dp497
g2
I-1
sg8
I-1
sbsg8
I-1
sg9
(i__main__
node
p498
(dp499
g2
I734
sg3
(i__main__
node
p500
(dp501
g2
I-1
sg8
I-1
sbsg8
I1
sg9
(i__main__
node
p502
(dp503
g2
I1359
sg3
(i__main__
node
p504
(dp505
g2
I-1
sg8
I-1
sbsg8
I1
sg9
(i__main__
node
p506
(dp507
g2
I4222
sg3
(i__main__
node
p508
(dp509
g2
I-1
sg8
I-1
sbsg8
I1
sg9
(i__main__
node
p510
(dp511
g2
I16801
sg3
(i__main__
node
p512
(dp513
g2
I-1
sg8
I-1
sbsg8
I1
sg9
(i__main__
node
p514
(dp515
g2
I3038
sg3
(i__main__
node
p516
(dp517
g2
I-1
sg8
I-1
sbsg8
I1
sg9
(i__main__
node
p518
(dp519
g2
I344
sg3
(i__main__
node
p520
(dp521
g2
I-1
sg8
I-1
sbsg8
I1
sg9
(i__main__
node
p522
(dp523
g2
I1270
sg3
(i__main__
node
p524
(dp525
g2
I-1
sg8
I-1
sbsg8
I1
sg9
(i__main__
node
p526
(dp527
g2
I2083
sg3
(i__main__
node
p528
(dp529
g2
I-1
sg8
I-1
sbsg8
I1
sg9
(i__main__
node
p530
(dp531
g2
I32854
sg3
(i__main__
node
p532
(dp533
g2
I-1
sg8
I1
sbsg8
I1
sg9
(i__main__
node
p534
(dp535
g2
I20131
sg3
(i__main__
node
p536
(dp537
g2
I-1
sg8
I1
sbsg8
I1
sg9
(i__main__
node
p538
(dp539
g2
I971
sg3
(i__main__
node
p540
(dp541
g2
I-1
sg8
I1
sbsg8
I1
sg9
(i__main__
node
p542
(dp543
g2
I2694
sg3
(i__main__
node
p544
(dp545
g2
I-1
sg8
I1
sbsg8
I1
sg9
(i__main__
node
p546
(dp547
g2
I2094
sg3
(i__main__
node
p548
(dp549
g2
I-1
sg8
I1
sbsg8
I1
sg9
(i__main__
node
p550
(dp551
g2
I7575
sg3
(i__main__
node
p552
(dp553
g2
I-1
sg8
I1
sbsg8
I1
sg9
(i__main__
node
p554
(dp555
g2
I368
sg3
(i__main__
node
p556
(dp557
g2
I-1
sg8
I1
sbsg8
I1
sg9
(i__main__
node
p558
(dp559
g2
I-1
sg8
I1
sbsbsbsbsbsbsbsbsbsbsbsbsbsbsbsbsbsbsbsbsbsbsbsg8
I1
sg9
(i__main__
node
p560
(dp561
g2
I2532
sg3
(i__main__
node
p562
(dp563
g2
I-1
sg8
I-1
sbsg8
I1
sg9
(i__main__
node
p564
(dp565
g2
I1897
sg3
(i__main__
node
p566
(dp567
g2
I-1
sg8
I-1
sbsg8
I1
sg9
(i__main__
node
p568
(dp569
g2
I734
sg3
(i__main__
node
p570
(dp571
g2
I813
sg3
(i__main__
node
p572
(dp573
g2
I-1
sg8
I-1
sbsg8
I-1
sg9
(i__main__
node
p574
(dp575
g2
I20905
sg3
(i__main__
node
p576
(dp577
g2
I-1
sg8
I-1
sbsg8
I-1
sg9
(i__main__
node
p578
(dp579
g2
I6862
sg3
(i__main__
node
p580
(dp581
g2
I-1
sg8
I-1
sbsg8
I-1
sg9
(i__main__
node
p582
(dp583
g2
I6999
sg3
(i__main__
node
p584
(dp585
g2
I-1
sg8
I-1
sbsg8
I-1
sg9
(i__main__
node
p586
(dp587
g2
I9168
sg3
(i__main__
node
p588
(dp589
g2
I-1
sg8
I-1
sbsg8
I-1
sg9
(i__main__
node
p590
(dp591
g2
I2256
sg3
(i__main__
node
p592
(dp593
g2
I-1
sg8
I-1
sbsg8
I-1
sg9
(i__main__
node
p594
(dp595
g2
I344
sg3
(i__main__
node
p596
(dp597
g2
I-1
sg8
I-1
sbsg8
I-1
sg9
(i__main__
node
p598
(dp599
g2
I12020
sg3
(i__main__
node
p600
(dp601
g2
I-1
sg8
I-1
sbsg8
I1
sg9
(i__main__
node
p602
(dp603
g2
I-1
sg8
I1
sbsbsbsbsbsbsbsbsbsg8
I1
sg9
(i__main__
node
p604
(dp605
g2
I584
sg3
(i__main__
node
p606
(dp607
g2
I1270
sg3
(i__main__
node
p608
(dp609
g2
I-1
sg8
I1
sbsg8
I-1
sg9
(i__main__
node
p610
(dp611
g2
I77845
sg3
(i__main__
node
p612
(dp613
g2
I-1
sg8
I1
sbsg8
I-1
sg9
(i__main__
node
p614
(dp615
g2
I12844
sg3
(i__main__
node
p616
(dp617
g2
I-1
sg8
I1
sbsg8
I-1
sg9
(i__main__
node
p618
(dp619
g2
I11384
sg3
(i__main__
node
p620
(dp621
g2
I-1
sg8
I1
sbsg8
I-1
sg9
(i__main__
node
p622
(dp623
g2
I2075
sg3
(i__main__
node
p624
(dp625
g2
I12874
sg3
(i__main__
node
p626
(dp627
g2
I-1
sg8
I-1
sbsg8
I-1
sg9
(i__main__
node
p628
(dp629
g2
I-1
sg8
I1
sbsbsg8
I-1
sg9
(i__main__
node
p630
(dp631
g2
I2421
sg3
(i__main__
node
p632
(dp633
g2
I-1
sg8
I-1
sbsg8
I-1
sg9
(i__main__
node
p634
(dp635
g2
I56041
sg3
(i__main__
node
p636
(dp637
g2
I-1
sg8
I-1
sbsg8
I-1
sg9
(i__main__
node
p638
(dp639
g2
I2235
sg3
(i__main__
node
p640
(dp641
g2
I-1
sg8
I-1
sbsg8
I-1
sg9
(i__main__
node
p642
(dp643
g2
I2694
sg3
(i__main__
node
p644
(dp645
g2
I-1
sg8
I-1
sbsg8
I-1
sg9
(i__main__
node
p646
(dp647
g2
I3628
sg3
(i__main__
node
p648
(dp649
g2
I-1
sg8
I-1
sbsg8
I-1
sg9
(i__main__
node
p650
(dp651
g2
I622
sg3
(i__main__
node
p652
(dp653
g2
I-1
sg8
I-1
sbsg8
I-1
sg9
(i__main__
node
p654
(dp655
g2
I13391
sg3
(i__main__
node
p656
(dp657
g2
I-1
sg8
I-1
sbsg8
I-1
sg9
(i__main__
node
p658
(dp659
g2
I37187
sg3
(i__main__
node
p660
(dp661
g2
I-1
sg8
I-1
sbsg8
I-1
sg9
(i__main__
node
p662
(dp663
g2
I1814
sg3
(i__main__
node
p664
(dp665
g2
I-1
sg8
I-1
sbsg8
I-1
sg9
(i__main__
node
p666
(dp667
g2
I6329
sg3
(i__main__
node
p668
(dp669
g2
I-1
sg8
I-1
sbsg8
I-1
sg9
(i__main__
node
p670
(dp671
g2
I-1
sg8
I-1
sbsbsbsbsbsbsbsbsbsbsbsbsbsbsbsbsg8
I1
sg9
(i__main__
node
p672
(dp673
g2
I760
sg3
(i__main__
node
p674
(dp675
g2
I2120
sg3
(i__main__
node
p676
(dp677
g2
I-1
sg8
I-1
sbsg8
I-1
sg9
(i__main__
node
p678
(dp679
g2
I2299
sg3
(i__main__
node
p680
(dp681
g2
I-1
sg8
I-1
sbsg8
I-1
sg9
(i__main__
node
p682
(dp683
g2
I37929
sg3
(i__main__
node
p684
(dp685
g2
I-1
sg8
I1
sbsg8
I-1
sg9
(i__main__
node
p686
(dp687
g2
I31626
sg3
(i__main__
node
p688
(dp689
g2
I-1
sg8
I1
sbsg8
I-1
sg9
(i__main__
node
p690
(dp691
g2
I2694
sg3
(i__main__
node
p692
(dp693
g2
I-1
sg8
I1
sbsg8
I-1
sg9
(i__main__
node
p694
(dp695
g2
I11720
sg3
(i__main__
node
p696
(dp697
g2
I-1
sg8
I1
sbsg8
I-1
sg9
(i__main__
node
p698
(dp699
g2
I33474
sg3
(i__main__
node
p700
(dp701
g2
I-1
sg8
I-1
sbsg8
I-1
sg9
(i__main__
node
p702
(dp703
g2
I24927
sg3
(i__main__
node
p704
(dp705
g2
I-1
sg8
I-1
sbsg8
I-1
sg9
(i__main__
node
p706
(dp707
g2
I2740
sg3
(i__main__
node
p708
(dp709
g2
I-1
sg8
I-1
sbsg8
I-1
sg9
(i__main__
node
p710
(dp711
g2
I2147
sg3
(i__main__
node
p712
(dp713
g2
I-1
sg8
I-1
sbsg8
I-1
sg9
(i__main__
node
p714
(dp715
g2
I23430
sg3
(i__main__
node
p716
(dp717
g2
I-1
sg8
I-1
sbsg8
I-1
sg9
(i__main__
node
p718
(dp719
g2
I21825
sg3
(i__main__
node
p720
(dp721
g2
I-1
sg8
I-1
sbsg8
I-1
sg9
(i__main__
node
p722
(dp723
g2
I1956
sg3
(i__main__
node
p724
(dp725
g2
I-1
sg8
I-1
sbsg8
I1
sg9
(i__main__
node
p726
(dp727
g2
I-1
sg8
I1
sbsbsbsbsbsbsbsbsbsbsbsbsbsbsg8
I1
sg9
(i__main__
node
p728
(dp729
g2
I1456
sg3
(i__main__
node
p730
(dp731
g2
I2740
sg3
(i__main__
node
p732
(dp733
g2
I-1
sg8
I-1
sbsg8
I-1
sg9
(i__main__
node
p734
(dp735
g2
I971
sg3
(i__main__
node
p736
(dp737
g2
I-1
sg8
I-1
sbsg8
I-1
sg9
(i__main__
node
p738
(dp739
g2
I4620
sg3
(i__main__
node
p740
(dp741
g2
I-1
sg8
I-1
sbsg8
I-1
sg9
(i__main__
node
p742
(dp743
g2
I2467
sg3
(i__main__
node
p744
(dp745
g2
I-1
sg8
I-1
sbsg8
I-1
sg9
(i__main__
node
p746
(dp747
g2
I58849
sg3
(i__main__
node
p748
(dp749
g2
I-1
sg8
I-1
sbsg8
I-1
sg9
(i__main__
node
p750
(dp751
g2
I-1
sg8
I-1
sbsbsbsbsbsbsg8
I1
sg9
(i__main__
node
p752
(dp753
g2
I503
sg3
(i__main__
node
p754
(dp755
g2
I1289
sg3
(i__main__
node
p756
(dp757
g2
I-1
sg8
I1
sbsg8
I-1
sg9
(i__main__
node
p758
(dp759
g2
I34636
sg3
(i__main__
node
p760
(dp761
g2
I-1
sg8
I1
sbsg8
I-1
sg9
(i__main__
node
p762
(dp763
g2
I2147
sg3
(i__main__
node
p764
(dp765
g2
I-1
sg8
I1
sbsg8
I-1
sg9
(i__main__
node
p766
(dp767
g2
I6217
sg3
(i__main__
node
p768
(dp769
g2
I-1
sg8
I1
sbsg8
I-1
sg9
(i__main__
node
p770
(dp771
g2
I-1
sg8
I-1
sbsbsbsbsbsg8
I1
sg9
(i__main__
node
p772
(dp773
g2
I3969
sg3
(i__main__
node
p774
(dp775
g2
I-1
sg8
I-1
sbsg8
I1
sg9
(i__main__
node
p776
(dp777
g2
I5221
sg3
(i__main__
node
p778
(dp779
g2
I-1
sg8
I-1
sbsg8
I1
sg9
(i__main__
node
p780
(dp781
g2
I2846
sg3
(i__main__
node
p782
(dp783
g2
I-1
sg8
I-1
sbsg8
I1
sg9
(i__main__
node
p784
(dp785
g2
I344
sg3
(i__main__
node
p786
(dp787
g2
I813
sg3
(i__main__
node
p788
(dp789
g2
I-1
sg8
I-1
sbsg8
I-1
sg9
(i__main__
node
p790
(dp791
g2
I2740
sg3
(i__main__
node
p792
(dp793
g2
I-1
sg8
I-1
sbsg8
I1
sg9
(i__main__
node
p794
(dp795
g2
I4388
sg3
(i__main__
node
p796
(dp797
g2
I-1
sg8
I-1
sbsg8
I1
sg9
(i__main__
node
p798
(dp799
g2
I3939
sg3
(i__main__
node
p800
(dp801
g2
I-1
sg8
I-1
sbsg8
I1
sg9
(i__main__
node
p802
(dp803
g2
I1289
sg3
(i__main__
node
p804
(dp805
g2
I-1
sg8
I-1
sbsg8
I1
sg9
(i__main__
node
p806
(dp807
g2
I13391
sg3
(i__main__
node
p808
(dp809
g2
I-1
sg8
I-1
sbsg8
I1
sg9
(i__main__
node
p810
(dp811
g2
I1627
sg3
(i__main__
node
p812
(dp813
g2
I-1
sg8
I-1
sbsg8
I1
sg9
(i__main__
node
p814
(dp815
g2
I1014
sg3
(i__main__
node
p816
(dp817
g2
I-1
sg8
I-1
sbsg8
I1
sg9
(i__main__
node
p818
(dp819
g2
I28388
sg3
(i__main__
node
p820
(dp821
g2
I-1
sg8
I1
sbsg8
I1
sg9
(i__main__
node
p822
(dp823
g2
I15300
sg3
(i__main__
node
p824
(dp825
g2
I-1
sg8
I1
sbsg8
I1
sg9
(i__main__
node
p826
(dp827
g2
I27541
sg3
(i__main__
node
p828
(dp829
g2
I-1
sg8
I1
sbsg8
I1
sg9
(i__main__
node
p830
(dp831
g2
I11177
sg3
(i__main__
node
p832
(dp833
g2
I-1
sg8
I1
sbsg8
I1
sg9
(i__main__
node
p834
(dp835
g2
I2290
sg3
(i__main__
node
p836
(dp837
g2
I-1
sg8
I-1
sbsg8
I1
sg9
(i__main__
node
p838
(dp839
g2
I971
sg3
(i__main__
node
p840
(dp841
g2
I-1
sg8
I1
sbsg8
I1
sg9
(i__main__
node
p842
(dp843
g2
I1956
sg3
(i__main__
node
p844
(dp845
g2
I-1
sg8
I1
sbsg8
I1
sg9
(i__main__
node
p846
(dp847
g2
I856
sg3
(i__main__
node
p848
(dp849
g2
I-1
sg8
I1
sbsg8
I1
sg9
(i__main__
node
p850
(dp851
g2
I-1
sg8
I1
sbsbsbsbsbsbsbsbsbsbsbsbsbsbsbsbsbsg8
I1
sg9
(i__main__
node
p852
(dp853
g2
I2290
sg3
(i__main__
node
p854
(dp855
g2
I-1
sg8
I-1
sbsg8
I1
sg9
(i__main__
node
p856
(dp857
g2
I1707
sg3
(i__main__
node
p858
(dp859
g2
I10344
sg3
(i__main__
node
p860
(dp861
g2
I-1
sg8
I-1
sbsg8
I-1
sg9
(i__main__
node
p862
(dp863
g2
I3671
sg3
(i__main__
node
p864
(dp865
g2
I-1
sg8
I-1
sbsg8
I-1
sg9
(i__main__
node
p866
(dp867
g2
I4953
sg3
(i__main__
node
p868
(dp869
g2
I-1
sg8
I-1
sbsg8
I-1
sg9
(i__main__
node
p870
(dp871
g2
I-1
sg8
I-1
sbsbsbsbsg8
I1
sg9
(i__main__
node
p872
(dp873
g2
I14241
sg3
(i__main__
node
p874
(dp875
g2
I-1
sg8
I-1
sbsg8
I1
sg9
(i__main__
node
p876
(dp877
g2
I20929
sg3
(i__main__
node
p878
(dp879
g2
I-1
sg8
I-1
sbsg8
I1
sg9
(i__main__
node
p880
(dp881
g2
I13539
sg3
(i__main__
node
p882
(dp883
g2
I-1
sg8
I-1
sbsg8
I1
sg9
(i__main__
node
p884
(dp885
g2
I6621
sg3
(i__main__
node
p886
(dp887
g2
I-1
sg8
I-1
sbsg8
I1
sg9
(i__main__
node
p888
(dp889
g2
I2751
sg3
(i__main__
node
p890
(dp891
g2
I-1
sg8
I-1
sbsg8
I1
sg9
(i__main__
node
p892
(dp893
g2
I5270
sg3
(i__main__
node
p894
(dp895
g2
I-1
sg8
I-1
sbsg8
I1
sg9
(i__main__
node
p896
(dp897
g2
I4111
sg3
(i__main__
node
p898
(dp899
g2
I-1
sg8
I-1
sbsg8
I1
sg9
(i__main__
node
p900
(dp901
g2
I2094
sg3
(i__main__
node
p902
(dp903
g2
I2563
sg3
(i__main__
node
p904
(dp905
g2
I813
sg3
(i__main__
node
p906
(dp907
g2
I-1
sg8
I-1
sbsg8
I-1
sg9
(i__main__
node
p908
(dp909
g2
I-1
sg8
I1
sbsbsg8
I-1
sg9
(i__main__
node
p910
(dp911
g2
I-1
sg8
I-1
sbsbsg8
I1
sg9
(i__main__
node
p912
(dp913
g2
I2187
sg3
(i__main__
node
p914
(dp915
g2
I63111
sg3
(i__main__
node
p916
(dp917
g2
I-1
sg8
I1
sbsg8
I-1
sg9
(i__main__
node
p918
(dp919
g2
I-1
sg8
I-1
sbsbsg8
I1
sg9
(i__main__
node
p920
(dp921
g2
I1285
sg3
(i__main__
node
p922
(dp923
g2
I20014
sg3
(i__main__
node
p924
(dp925
g2
I-1
sg8
I1
sbsg8
I-1
sg9
(i__main__
node
p926
(dp927
g2
I2235
sg3
(i__main__
node
p928
(dp929
g2
I-1
sg8
I1
sbsg8
I-1
sg9
(i__main__
node
p930
(dp931
g2
I1014
sg3
(i__main__
node
p932
(dp933
g2
I-1
sg8
I1
sbsg8
I-1
sg9
(i__main__
node
p934
(dp935
g2
I-1
sg8
I-1
sbsbsbsbsg8
I1
sg9
(i__main__
node
p936
(dp937
g2
I2235
sg3
(i__main__
node
p938
(dp939
g2
I-1
sg8
I-1
sbsg8
I1
sg9
(i__main__
node
p940
(dp941
g2
I1014
sg3
(i__main__
node
p942
(dp943
g2
I12918
sg3
(i__main__
node
p944
(dp945
g2
I-1
sg8
I1
sbsg8
I-1
sg9
(i__main__
node
p946
(dp947
g2
I25603
sg3
(i__main__
node
p948
(dp949
g2
I-1
sg8
I1
sbsg8
I-1
sg9
(i__main__
node
p950
(dp951
g2
I-1
sg8
I-1
sbsbsbsg8
I1
sg9
(i__main__
node
p952
(dp953
g2
I45203
sg3
(i__main__
node
p954
(dp955
g2
I-1
sg8
I-1
sbsg8
I1
sg9
(i__main__
node
p956
(dp957
g2
I59353
sg3
(i__main__
node
p958
(dp959
g2
I-1
sg8
I-1
sbsg8
I1
sg9
(i__main__
node
p960
(dp961
g2
I35876
sg3
(i__main__
node
p962
(dp963
g2
I-1
sg8
I-1
sbsg8
I1
sg9
(i__main__
node
p964
(dp965
g2
I71778
sg3
(i__main__
node
p966
(dp967
g2
I-1
sg8
I-1
sbsg8
I1
sg9
(i__main__
node
p968
(dp969
g2
I47277
sg3
(i__main__
node
p970
(dp971
g2
I-1
sg8
I-1
sbsg8
I1
sg9
(i__main__
node
p972
(dp973
g2
I40346
sg3
(i__main__
node
p974
(dp975
g2
I-1
sg8
I-1
sbsg8
I1
sg9
(i__main__
node
p976
(dp977
g2
I49041
sg3
(i__main__
node
p978
(dp979
g2
I-1
sg8
I-1
sbsg8
I1
sg9
(i__main__
node
p980
(dp981
g2
I67353
sg3
(i__main__
node
p982
(dp983
g2
I-1
sg8
I-1
sbsg8
I1
sg9
(i__main__
node
p984
(dp985
g2
I45488
sg3
(i__main__
node
p986
(dp987
g2
I-1
sg8
I-1
sbsg8
I1
sg9
(i__main__
node
p988
(dp989
g2
I45018
sg3
(i__main__
node
p990
(dp991
g2
I-1
sg8
I-1
sbsg8
I1
sg9
(i__main__
node
p992
(dp993
g2
I86816
sg3
(i__main__
node
p994
(dp995
g2
I-1
sg8
I-1
sbsg8
I1
sg9
(i__main__
node
p996
(dp997
g2
I3564
sg3
(i__main__
node
p998
(dp999
g2
I-1
sg8
I-1
sbsg8
I1
sg9
(i__main__
node
p1000
(dp1001
g2
I3456
sg3
(i__main__
node
p1002
(dp1003
g2
I-1
sg8
I-1
sbsg8
I1
sg9
(i__main__
node
p1004
(dp1005
g2
I3284
sg3
(i__main__
node
p1006
(dp1007
g2
I-1
sg8
I-1
sbsg8
I1
sg9
(i__main__
node
p1008
(dp1009
g2
I16227
sg3
(i__main__
node
p1010
(dp1011
g2
I-1
sg8
I-1
sbsg8
I1
sg9
(i__main__
node
p1012
(dp1013
g2
I30195
sg3
(i__main__
node
p1014
(dp1015
g2
I-1
sg8
I-1
sbsg8
I1
sg9
(i__main__
node
p1016
(dp1017
g2
I17233
sg3
(i__main__
node
p1018
(dp1019
g2
I-1
sg8
I-1
sbsg8
I1
sg9
(i__main__
node
p1020
(dp1021
g2
I16470
sg3
(i__main__
node
p1022
(dp1023
g2
I-1
sg8
I-1
sbsg8
I1
sg9
(i__main__
node
p1024
(dp1025
g2
I4347
sg3
(i__main__
node
p1026
(dp1027
g2
I-1
sg8
I-1
sbsg8
I1
sg9
(i__main__
node
p1028
(dp1029
g2
I38158
sg3
(i__main__
node
p1030
(dp1031
g2
I-1
sg8
I-1
sbsg8
I1
sg9
(i__main__
node
p1032
(dp1033
g2
I1359
sg3
(i__main__
node
p1034
(dp1035
g2
I17562
sg3
(i__main__
node
p1036
(dp1037
g2
I-1
sg8
I1
sbsg8
I-1
sg9
(i__main__
node
p1038
(dp1039
g2
I-1
sg8
I-1
sbsbsg8
I1
sg9
(i__main__
node
p1040
(dp1041
g2
I2919
sg3
(i__main__
node
p1042
(dp1043
g2
I2147
sg3
(i__main__
node
p1044
(dp1045
g2
I-1
sg8
I1
sbsg8
I-1
sg9
(i__main__
node
p1046
(dp1047
g2
I-1
sg8
I-1
sbsbsg8
I1
sg9
(i__main__
node
p1048
(dp1049
g2
I17638
sg3
(i__main__
node
p1050
(dp1051
g2
I-1
sg8
I-1
sbsg8
I1
sg9
(i__main__
node
p1052
(dp1053
g2
I18934
sg3
(i__main__
node
p1054
(dp1055
g2
I-1
sg8
I-1
sbsg8
I1
sg9
(i__main__
node
p1056
(dp1057
g2
I47186
sg3
(i__main__
node
p1058
(dp1059
g2
I-1
sg8
I-1
sbsg8
I1
sg9
(i__main__
node
p1060
(dp1061
g2
I12752
sg3
(i__main__
node
p1062
(dp1063
g2
I-1
sg8
I-1
sbsg8
I1
sg9
(i__main__
node
p1064
(dp1065
g2
I4890
sg3
(i__main__
node
p1066
(dp1067
g2
I-1
sg8
I-1
sbsg8
I1
sg9
(i__main__
node
p1068
(dp1069
g2
I25031
sg3
(i__main__
node
p1070
(dp1071
g2
I-1
sg8
I-1
sbsg8
I1
sg9
(i__main__
node
p1072
(dp1073
g2
I12121
sg3
(i__main__
node
p1074
(dp1075
g2
I-1
sg8
I-1
sbsg8
I1
sg9
(i__main__
node
p1076
(dp1077
g2
I41565
sg3
(i__main__
node
p1078
(dp1079
g2
I-1
sg8
I-1
sbsg8
I1
sg9
(i__main__
node
p1080
(dp1081
g2
I12930
sg3
(i__main__
node
p1082
(dp1083
g2
I-1
sg8
I-1
sbsg8
I1
sg9
(i__main__
node
p1084
(dp1085
g2
I3424
sg3
(i__main__
node
p1086
(dp1087
g2
I-1
sg8
I-1
sbsg8
I1
sg9
(i__main__
node
p1088
(dp1089
g2
I15987
sg3
(i__main__
node
p1090
(dp1091
g2
I-1
sg8
I-1
sbsg8
I1
sg9
(i__main__
node
p1092
(dp1093
g2
I12029
sg3
(i__main__
node
p1094
(dp1095
g2
I-1
sg8
I-1
sbsg8
I1
sg9
(i__main__
node
p1096
(dp1097
g2
I2421
sg3
(i__main__
node
p1098
(dp1099
g2
I-1
sg8
I-1
sbsg8
I1
sg9
(i__main__
node
p1100
(dp1101
g2
I14805
sg3
(i__main__
node
p1102
(dp1103
g2
I-1
sg8
I-1
sbsg8
I1
sg9
(i__main__
node
p1104
(dp1105
g2
I77323
sg3
(i__main__
node
p1106
(dp1107
g2
I-1
sg8
I-1
sbsg8
I1
sg9
(i__main__
node
p1108
(dp1109
g2
I9344
sg3
(i__main__
node
p1110
(dp1111
g2
I-1
sg8
I-1
sbsg8
I1
sg9
(i__main__
node
p1112
(dp1113
g2
I37756
sg3
(i__main__
node
p1114
(dp1115
g2
I-1
sg8
I-1
sbsg8
I1
sg9
(i__main__
node
p1116
(dp1117
g2
I971
sg3
(i__main__
node
p1118
(dp1119
g2
I81974
sg3
(i__main__
node
p1120
(dp1121
g2
I-1
sg8
I1
sbsg8
I1
sg9
(i__main__
node
p1122
(dp1123
g2
I3671
sg3
(i__main__
node
p1124
(dp1125
g2
I-1
sg8
I1
sbsg8
I-1
sg9
(i__main__
node
p1126
(dp1127
g2
I-1
sg8
I-1
sbsbsbsg8
I1
sg9
(i__main__
node
p1128
(dp1129
g2
I6174
sg3
(i__main__
node
p1130
(dp1131
g2
I-1
sg8
I-1
sbsg8
I1
sg9
(i__main__
node
p1132
(dp1133
g2
I813
sg3
(i__main__
node
p1134
(dp1135
g2
I3380
sg3
(i__main__
node
p1136
(dp1137
g2
I-1
sg8
I1
sbsg8
I1
sg9
(i__main__
node
p1138
(dp1139
g2
I10125
sg3
(i__main__
node
p1140
(dp1141
g2
I-1
sg8
I1
sbsg8
I-1
sg9
(i__main__
node
p1142
(dp1143
g2
I363
sg3
(i__main__
node
p1144
(dp1145
g2
I-1
sg8
I-1
sbsg8
I-1
sg9
(i__main__
node
p1146
(dp1147
g2
I-1
sg8
I-1
sbsbsbsbsg8
I1
sg9
(i__main__
node
p1148
(dp1149
g2
I363
sg3
(i__main__
node
p1150
(dp1151
g2
I-1
sg8
I1
sbsg8
I1
sg9
(i__main__
node
p1152
(dp1153
g2
I2006
sg3
(i__main__
node
p1154
(dp1155
g2
I46210
sg3
(i__main__
node
p1156
(dp1157
g2
I-1
sg8
I1
sbsg8
I1
sg9
(i__main__
node
p1158
(dp1159
g2
I-1
sg8
I-1
sbsbsg8
I1
sg9
(i__main__
node
p1160
(dp1161
g2
I622
sg3
(i__main__
node
p1162
(dp1163
g2
I-1
sg8
I1
sbsg8
I1
sg9
(i__main__
node
p1164
(dp1165
g2
I5845
sg3
(i__main__
node
p1166
(dp1167
g2
I42693
sg3
(i__main__
node
p1168
(dp1169
g2
I-1
sg8
I1
sbsg8
I-1
sg9
(i__main__
node
p1170
(dp1171
g2
I-1
sg8
I-1
sbsbsg8
I1
sg9
(i__main__
node
p1172
(dp1173
g2
I2427
sg3
(i__main__
node
p1174
(dp1175
g2
I9446
sg3
(i__main__
node
p1176
(dp1177
g2
I-1
sg8
I1
sbsg8
I-1
sg9
(i__main__
node
p1178
(dp1179
g2
I-1
sg8
I-1
sbsbsg8
I1
sg9
(i__main__
node
p1180
(dp1181
g2
I856
sg3
(i__main__
node
p1182
(dp1183
g2
I7334
sg3
(i__main__
node
p1184
(dp1185
g2
I-1
sg8
I1
sbsg8
I-1
sg9
(i__main__
node
p1186
(dp1187
g2
I-1
sg8
I-1
sbsbsg8
I1
sg9
(i__main__
node
p1188
(dp1189
g2
I1814
sg3
(i__main__
node
p1190
(dp1191
g2
I-1
sg8
I-1
sbsg8
I1
sg9
(i__main__
node
p1192
(dp1193
g2
I2289
sg3
(i__main__
node
p1194
(dp1195
g2
I-1
sg8
I1
sbsg8
I1
sg9
(i__main__
node
p1196
(dp1197
g2
I2075
sg3
(i__main__
node
p1198
(dp1199
g2
I1844
sg3
(i__main__
node
p1200
(dp1201
g2
I-1
sg8
I-1
sbsg8
I1
sg9
(i__main__
node
p1202
(dp1203
g2
I-1
sg8
I1
sbsbsg8
I1
sg9
(i__main__
node
p1204
(dp1205
g2
I368
sg3
(i__main__
node
p1206
(dp1207
g2
I2467
sg3
(i__main__
node
p1208
(dp1209
g2
I-1
sg8
I1
sbsg8
I1
sg9
(i__main__
node
p1210
(dp1211
g2
I8749
sg3
(i__main__
node
p1212
(dp1213
g2
I-1
sg8
I1
sbsg8
I1
sg9
(i__main__
node
p1214
(dp1215
g2
I-1
sg8
I1
sbsbsbsg8
I1
sg9
(i__main__
node
p1216
(dp1217
g2
I20221
sg3
(i__main__
node
p1218
(dp1219
g2
I-1
sg8
I1
sbsg8
I1
sg9
(i__main__
node
p1220
(dp1221
g2
I45773
sg3
(i__main__
node
p1222
(dp1223
g2
I-1
sg8
I1
sbsg8
I1
sg9
(i__main__
node
p1224
(dp1225
g2
I34058
sg3
(i__main__
node
p1226
(dp1227
g2
I-1
sg8
I1
sbsg8
I1
sg9
(i__main__
node
p1228
(dp1229
g2
I3889
sg3
(i__main__
node
p1230
(dp1231
g2
I-1
sg8
I1
sbsg8
I1
sg9
(i__main__
node
p1232
(dp1233
g2
I3038
sg3
(i__main__
node
p1234
(dp1235
g2
I-1
sg8
I1
sbsg8
I1
sg9
(i__main__
node
p1236
(dp1237
g2
I1956
sg3
(i__main__
node
p1238
(dp1239
g2
I-1
sg8
I1
sbsg8
I1
sg9
(i__main__
node
p1240
(dp1241
g2
I3671
sg3
(i__main__
node
p1242
(dp1243
g2
I-1
sg8
I1
sbsg8
I1
sg9
(i__main__
node
p1244
(dp1245
g2
I2709
sg3
(i__main__
node
p1246
(dp1247
g2
I-1
sg8
I1
sbsg8
I1
sg9
(i__main__
node
p1248
(dp1249
g2
I1270
sg3
(i__main__
node
p1250
(dp1251
g2
I-1
sg8
I1
sbsg8
I1
sg9
(i__main__
node
p1252
(dp1253
g2
I1179
sg3
(i__main__
node
p1254
(dp1255
g2
I-1
sg8
I1
sbsg8
I1
sg9
(i__main__
node
p1256
(dp1257
g2
I1844
sg3
(i__main__
node
p1258
(dp1259
g2
I-1
sg8
I1
sbsg8
I1
sg9
(i__main__
node
p1260
(dp1261
g2
I1197
sg3
(i__main__
node
p1262
(dp1263
g2
I-1
sg8
I1
sbsg8
I1
sg9
(i__main__
node
p1264
(dp1265
g2
I1893
sg3
(i__main__
node
p1266
(dp1267
g2
I-1
sg8
I1
sbsg8
I1
sg9
(i__main__
node
p1268
(dp1269
g2
I81445
sg3
(i__main__
node
p1270
(dp1271
g2
I-1
sg8
I1
sbsg8
I1
sg9
(i__main__
node
p1272
(dp1273
g2
I59949
sg3
(i__main__
node
p1274
(dp1275
g2
I-1
sg8
I1
sbsg8
I1
sg9
(i__main__
node
p1276
(dp1277
g2
I48115
sg3
(i__main__
node
p1278
(dp1279
g2
I-1
sg8
I1
sbsg8
I1
sg9
(i__main__
node
p1280
(dp1281
g2
I43087
sg3
(i__main__
node
p1282
(dp1283
g2
I-1
sg8
I1
sbsg8
I1
sg9
(i__main__
node
p1284
(dp1285
g2
I33108
sg3
(i__main__
node
p1286
(dp1287
g2
I-1
sg8
I1
sbsg8
I1
sg9
(i__main__
node
p1288
(dp1289
g2
I24763
sg3
(i__main__
node
p1290
(dp1291
g2
I-1
sg8
I1
sbsg8
I1
sg9
(i__main__
node
p1292
(dp1293
g2
I77121
sg3
(i__main__
node
p1294
(dp1295
g2
I-1
sg8
I1
sbsg8
I1
sg9
(i__main__
node
p1296
(dp1297
g2
I23284
sg3
(i__main__
node
p1298
(dp1299
g2
I-1
sg8
I1
sbsg8
I1
sg9
(i__main__
node
p1300
(dp1301
g2
I29760
sg3
(i__main__
node
p1302
(dp1303
g2
I-1
sg8
I1
sbsg8
I1
sg9
(i__main__
node
p1304
(dp1305
g2
I31723
sg3
(i__main__
node
p1306
(dp1307
g2
I-1
sg8
I1
sbsg8
I1
sg9
(i__main__
node
p1308
(dp1309
g2
I51948
sg3
(i__main__
node
p1310
(dp1311
g2
I-1
sg8
I1
sbsg8
I1
sg9
(i__main__
node
p1312
(dp1313
g2
I27008
sg3
(i__main__
node
p1314
(dp1315
g2
I-1
sg8
I1
sbsg8
I1
sg9
(i__main__
node
p1316
(dp1317
g2
I65549
sg3
(i__main__
node
p1318
(dp1319
g2
I-1
sg8
I1
sbsg8
I1
sg9
(i__main__
node
p1320
(dp1321
g2
I24621
sg3
(i__main__
node
p1322
(dp1323
g2
I-1
sg8
I1
sbsg8
I1
sg9
(i__main__
node
p1324
(dp1325
g2
I71814
sg3
(i__main__
node
p1326
(dp1327
g2
I-1
sg8
I1
sbsg8
I1
sg9
(i__main__
node
p1328
(dp1329
g2
I34424
sg3
(i__main__
node
p1330
(dp1331
g2
I-1
sg8
I1
sbsg8
I1
sg9
(i__main__
node
p1332
(dp1333
g2
I42233
sg3
(i__main__
node
p1334
(dp1335
g2
I-1
sg8
I1
sbsg8
I1
sg9
(i__main__
node
p1336
(dp1337
g2
I10050
sg3
(i__main__
node
p1338
(dp1339
g2
I-1
sg8
I1
sbsg8
I1
sg9
(i__main__
node
p1340
(dp1341
g2
I18709
sg3
(i__main__
node
p1342
(dp1343
g2
I-1
sg8
I1
sbsg8
I1
sg9
(i__main__
node
p1344
(dp1345
g2
I49236
sg3
(i__main__
node
p1346
(dp1347
g2
I-1
sg8
I1
sbsg8
I1
sg9
(i__main__
node
p1348
(dp1349
g2
I42185
sg3
(i__main__
node
p1350
(dp1351
g2
I-1
sg8
I1
sbsg8
I1
sg9
(i__main__
node
p1352
(dp1353
g2
I38875
sg3
(i__main__
node
p1354
(dp1355
g2
I-1
sg8
I1
sbsg8
I1
sg9
(i__main__
node
p1356
(dp1357
g2
I40915
sg3
(i__main__
node
p1358
(dp1359
g2
I-1
sg8
I1
sbsg8
I1
sg9
(i__main__
node
p1360
(dp1361
g2
I75184
sg3
(i__main__
node
p1362
(dp1363
g2
I-1
sg8
I1
sbsg8
I1
sg9
(i__main__
node
p1364
(dp1365
g2
I54479
sg3
(i__main__
node
p1366
(dp1367
g2
I-1
sg8
I1
sbsg8
I1
sg9
(i__main__
node
p1368
(dp1369
g2
I13242
sg3
(i__main__
node
p1370
(dp1371
g2
I-1
sg8
I1
sbsg8
I1
sg9
(i__main__
node
p1372
(dp1373
g2
I82695
sg3
(i__main__
node
p1374
(dp1375
g2
I-1
sg8
I1
sbsg8
I1
sg9
(i__main__
node
p1376
(dp1377
g2
I70684
sg3
(i__main__
node
p1378
(dp1379
g2
I-1
sg8
I1
sbsg8
I1
sg9
(i__main__
node
p1380
(dp1381
g2
I47388
sg3
(i__main__
node
p1382
(dp1383
g2
I-1
sg8
I1
sbsg8
I1
sg9
(i__main__
node
p1384
(dp1385
g2
I42659
sg3
(i__main__
node
p1386
(dp1387
g2
I-1
sg8
I1
sbsg8
I1
sg9
(i__main__
node
p1388
(dp1389
g2
I27089
sg3
(i__main__
node
p1390
(dp1391
g2
I-1
sg8
I1
sbsg8
I1
sg9
(i__main__
node
p1392
(dp1393
g2
I33640
sg3
(i__main__
node
p1394
(dp1395
g2
I-1
sg8
I1
sbsg8
I1
sg9
(i__main__
node
p1396
(dp1397
g2
I12297
sg3
(i__main__
node
p1398
(dp1399
g2
I-1
sg8
I1
sbsg8
I1
sg9
(i__main__
node
p1400
(dp1401
g2
I43553
sg3
(i__main__
node
p1402
(dp1403
g2
I-1
sg8
I1
sbsg8
I1
sg9
(i__main__
node
p1404
(dp1405
g2
I23167
sg3
(i__main__
node
p1406
(dp1407
g2
I-1
sg8
I1
sbsg8
I1
sg9
(i__main__
node
p1408
(dp1409
g2
I74414
sg3
(i__main__
node
p1410
(dp1411
g2
I-1
sg8
I1
sbsg8
I1
sg9
(i__main__
node
p1412
(dp1413
g2
I18014
sg3
(i__main__
node
p1414
(dp1415
g2
I-1
sg8
I1
sbsg8
I1
sg9
(i__main__
node
p1416
(dp1417
g2
I73070
sg3
(i__main__
node
p1418
(dp1419
g2
I-1
sg8
I1
sbsg8
I1
sg9
(i__main__
node
p1420
(dp1421
g2
I40105
sg3
(i__main__
node
p1422
(dp1423
g2
I-1
sg8
I1
sbsg8
I1
sg9
(i__main__
node
p1424
(dp1425
g2
I25309
sg3
(i__main__
node
p1426
(dp1427
g2
I-1
sg8
I1
sbsg8
I1
sg9
(i__main__
node
p1428
(dp1429
g2
I24452
sg3
(i__main__
node
p1430
(dp1431
g2
I-1
sg8
I1
sbsg8
I1
sg9
(i__main__
node
p1432
(dp1433
g2
I55505
sg3
(i__main__
node
p1434
(dp1435
g2
I-1
sg8
I1
sbsg8
I1
sg9
(i__main__
node
p1436
(dp1437
g2
I66038
sg3
(i__main__
node
p1438
(dp1439
g2
I-1
sg8
I1
sbsg8
I1
sg9
(i__main__
node
p1440
(dp1441
g2
I40973
sg3
(i__main__
node
p1442
(dp1443
g2
I-1
sg8
I1
sbsg8
I1
sg9
(i__main__
node
p1444
(dp1445
g2
I25701
sg3
(i__main__
node
p1446
(dp1447
g2
I-1
sg8
I1
sbsg8
I1
sg9
(i__main__
node
p1448
(dp1449
g2
I22409
sg3
(i__main__
node
p1450
(dp1451
g2
I-1
sg8
I1
sbsg8
I1
sg9
(i__main__
node
p1452
(dp1453
g2
I20014
sg3
(i__main__
node
p1454
(dp1455
g2
I-1
sg8
I1
sbsg8
I1
sg9
(i__main__
node
p1456
(dp1457
g2
I60728
sg3
(i__main__
node
p1458
(dp1459
g2
I-1
sg8
I1
sbsg8
I1
sg9
(i__main__
node
p1460
(dp1461
g2
I27811
sg3
(i__main__
node
p1462
(dp1463
g2
I-1
sg8
I1
sbsg8
I1
sg9
(i__main__
node
p1464
(dp1465
g2
I24830
sg3
(i__main__
node
p1466
(dp1467
g2
I-1
sg8
I1
sbsg8
I1
sg9
(i__main__
node
p1468
(dp1469
g2
I38136
sg3
(i__main__
node
p1470
(dp1471
g2
I-1
sg8
I1
sbsg8
I1
sg9
(i__main__
node
p1472
(dp1473
g2
I72482
sg3
(i__main__
node
p1474
(dp1475
g2
I-1
sg8
I1
sbsg8
I1
sg9
(i__main__
node
p1476
(dp1477
g2
I33283
sg3
(i__main__
node
p1478
(dp1479
g2
I-1
sg8
I1
sbsg8
I1
sg9
(i__main__
node
p1480
(dp1481
g2
I36254
sg3
(i__main__
node
p1482
(dp1483
g2
I-1
sg8
I1
sbsg8
I1
sg9
(i__main__
node
p1484
(dp1485
g2
I31469
sg3
(i__main__
node
p1486
(dp1487
g2
I-1
sg8
I1
sbsg8
I1
sg9
(i__main__
node
p1488
(dp1489
g2
I77016
sg3
(i__main__
node
p1490
(dp1491
g2
I-1
sg8
I1
sbsg8
I1
sg9
(i__main__
node
p1492
(dp1493
g2
I5817
sg3
(i__main__
node
p1494
(dp1495
g2
I-1
sg8
I1
sbsg8
I1
sg9
(i__main__
node
p1496
(dp1497
g2
I19639
sg3
(i__main__
node
p1498
(dp1499
g2
I-1
sg8
I1
sbsg8
I1
sg9
(i__main__
node
p1500
(dp1501
g2
I7175
sg3
(i__main__
node
p1502
(dp1503
g2
I-1
sg8
I1
sbsg8
I1
sg9
(i__main__
node
p1504
(dp1505
g2
I67840
sg3
(i__main__
node
p1506
(dp1507
g2
I-1
sg8
I1
sbsg8
I1
sg9
(i__main__
node
p1508
(dp1509
g2
I64680
sg3
(i__main__
node
p1510
(dp1511
g2
I-1
sg8
I1
sbsg8
I1
sg9
(i__main__
node
p1512
(dp1513
g2
I31548
sg3
(i__main__
node
p1514
(dp1515
g2
I-1
sg8
I1
sbsg8
I1
sg9
(i__main__
node
p1516
(dp1517
g2
I73707
sg3
(i__main__
node
p1518
(dp1519
g2
I-1
sg8
I1
sbsg8
I1
sg9
(i__main__
node
p1520
(dp1521
g2
I25723
sg3
(i__main__
node
p1522
(dp1523
g2
I-1
sg8
I1
sbsg8
I1
sg9
(i__main__
node
p1524
(dp1525
g2
I58743
sg3
(i__main__
node
p1526
(dp1527
g2
I-1
sg8
I1
sbsg8
I1
sg9
(i__main__
node
p1528
(dp1529
g2
I17166
sg3
(i__main__
node
p1530
(dp1531
g2
I-1
sg8
I1
sbsg8
I1
sg9
(i__main__
node
p1532
(dp1533
g2
I56722
sg3
(i__main__
node
p1534
(dp1535
g2
I-1
sg8
I1
sbsg8
I1
sg9
(i__main__
node
p1536
(dp1537
g2
I38118
sg3
(i__main__
node
p1538
(dp1539
g2
I-1
sg8
I1
sbsg8
I1
sg9
(i__main__
node
p1540
(dp1541
g2
I39374
sg3
(i__main__
node
p1542
(dp1543
g2
I-1
sg8
I1
sbsg8
I1
sg9
(i__main__
node
p1544
(dp1545
g2
I25924
sg3
(i__main__
node
p1546
(dp1547
g2
I-1
sg8
I1
sbsg8
I1
sg9
(i__main__
node
p1548
(dp1549
g2
I11732
sg3
(i__main__
node
p1550
(dp1551
g2
I-1
sg8
I1
sbsg8
I1
sg9
(i__main__
node
p1552
(dp1553
g2
I9446
sg3
(i__main__
node
p1554
(dp1555
g2
I-1
sg8
I1
sbsg8
I1
sg9
(i__main__
node
p1556
(dp1557
g2
I23992
sg3
(i__main__
node
p1558
(dp1559
g2
I-1
sg8
I1
sbsg8
I1
sg9
(i__main__
node
p1560
(dp1561
g2
I3682
sg3
(i__main__
node
p1562
(dp1563
g2
I-1
sg8
I1
sbsg8
I1
sg9
(i__main__
node
p1564
(dp1565
g2
I2147
sg3
(i__main__
node
p1566
(dp1567
g2
I-1
sg8
I1
sbsg8
I1
sg9
(i__main__
node
p1568
(dp1569
g2
I31998
sg3
(i__main__
node
p1570
(dp1571
g2
I-1
sg8
I1
sbsg8
I1
sg9
(i__main__
node
p1572
(dp1573
g2
I2362
sg3
(i__main__
node
p1574
(dp1575
g2
I-1
sg8
I1
sbsg8
I1
sg9
(i__main__
node
p1576
(dp1577
g2
I3692
sg3
(i__main__
node
p1578
(dp1579
g2
I-1
sg8
I1
sbsg8
I1
sg9
(i__main__
node
p1580
(dp1581
g2
I19660
sg3
(i__main__
node
p1582
(dp1583
g2
I-1
sg8
I1
sbsg8
I1
sg9
(i__main__
node
p1584
(dp1585
g2
I2612
sg3
(i__main__
node
p1586
(dp1587
g2
I-1
sg8
I1
sbsg8
I1
sg9
(i__main__
node
p1588
(dp1589
g2
I2694
sg3
(i__main__
node
p1590
(dp1591
g2
I-1
sg8
I1
sbsg8
I1
sg9
(i__main__
node
p1592
(dp1593
g2
I12078
sg3
(i__main__
node
p1594
(dp1595
g2
I-1
sg8
I1
sbsg8
I1
sg9
(i__main__
node
p1596
(dp1597
g2
I5334
sg3
(i__main__
node
p1598
(dp1599
g2
I-1
sg8
I1
sbsg8
I1
sg9
(i__main__
node
p1600
(dp1601
g2
I64481
sg3
(i__main__
node
p1602
(dp1603
g2
I-1
sg8
I1
sbsg8
I1
sg9
(i__main__
node
p1604
(dp1605
g2
I36680
sg3
(i__main__
node
p1606
(dp1607
g2
I-1
sg8
I1
sbsg8
I1
sg9
(i__main__
node
p1608
(dp1609
g2
I24596
sg3
(i__main__
node
p1610
(dp1611
g2
I-1
sg8
I1
sbsg8
I1
sg9
(i__main__
node
p1612
(dp1613
g2
I16017
sg3
(i__main__
node
p1614
(dp1615
g2
I-1
sg8
I1
sbsg8
I1
sg9
(i__main__
node
p1616
(dp1617
g2
I9927
sg3
(i__main__
node
p1618
(dp1619
g2
I-1
sg8
I1
sbsg8
I1
sg9
(i__main__
node
p1620
(dp1621
g2
I8749
sg3
(i__main__
node
p1622
(dp1623
g2
I-1
sg8
I1
sbsg8
I1
sg9
(i__main__
node
p1624
(dp1625
g2
I4323
sg3
(i__main__
node
p1626
(dp1627
g2
I-1
sg8
I1
sbsg8
I1
sg9
(i__main__
node
p1628
(dp1629
g2
I1173
sg3
(i__main__
node
p1630
(dp1631
g2
I-1
sg8
I1
sbsg8
I1
sg9
(i__main__
node
p1632
(dp1633
g2
I37945
sg3
(i__main__
node
p1634
(dp1635
g2
I-1
sg8
I1
sbsg8
I1
sg9
(i__main__
node
p1636
(dp1637
g2
I18128
sg3
(i__main__
node
p1638
(dp1639
g2
I-1
sg8
I1
sbsg8
I1
sg9
(i__main__
node
p1640
(dp1641
g2
I8161
sg3
(i__main__
node
p1642
(dp1643
g2
I-1
sg8
I1
sbsg8
I1
sg9
(i__main__
node
p1644
(dp1645
g2
I33076
sg3
(i__main__
node
p1646
(dp1647
g2
I-1
sg8
I1
sbsg8
I1
sg9
(i__main__
node
p1648
(dp1649
g2
I9425
sg3
(i__main__
node
p1650
(dp1651
g2
I-1
sg8
I1
sbsg8
I1
sg9
(i__main__
node
p1652
(dp1653
g2
I2068
sg3
(i__main__
node
p1654
(dp1655
g2
I-1
sg8
I1
sbsg8
I1
sg9
(i__main__
node
p1656
(dp1657
g2
I2252
sg3
(i__main__
node
p1658
(dp1659
g2
I-1
sg8
I1
sbsg8
I1
sg9
(i__main__
node
p1660
(dp1661
g2
I29610
sg3
(i__main__
node
p1662
(dp1663
g2
I-1
sg8
I1
sbsg8
I1
sg9
(i__main__
node
p1664
(dp1665
g2
I3434
sg3
(i__main__
node
p1666
(dp1667
g2
I-1
sg8
I1
sbsg8
I1
sg9
(i__main__
node
p1668
(dp1669
g2
I67800
sg3
(i__main__
node
p1670
(dp1671
g2
I-1
sg8
I1
sbsg8
I1
sg9
(i__main__
node
p1672
(dp1673
g2
I4265
sg3
(i__main__
node
p1674
(dp1675
g2
I-1
sg8
I1
sbsg8
I1
sg9
(i__main__
node
p1676
(dp1677
g2
I34570
sg3
(i__main__
node
p1678
(dp1679
g2
I-1
sg8
I1
sbsg8
I1
sg9
(i__main__
node
p1680
(dp1681
g2
I1606
sg3
(i__main__
node
p1682
(dp1683
g2
I-1
sg8
I1
sbsg8
I1
sg9
(i__main__
node
p1684
(dp1685
g2
I12341
sg3
(i__main__
node
p1686
(dp1687
g2
I-1
sg8
I1
sbsg8
I1
sg9
(i__main__
node
p1688
(dp1689
g2
I29564
sg3
(i__main__
node
p1690
(dp1691
g2
I-1
sg8
I1
sbsg8
I1
sg9
(i__main__
node
p1692
(dp1693
g2
I82184
sg3
(i__main__
node
p1694
(dp1695
g2
I-1
sg8
I1
sbsg8
I1
sg9
(i__main__
node
p1696
(dp1697
g2
I-1
sg8
I1
sbsbsbsbsbsbsbsbsbsbsbsbsbsbsbsbsbsbsbsbsbsbsbsbsbsbsbsbsbsbsbsbsbsbsbsbsbsbsbsbsbsbsbsbsbsbsbsbsbsbsbsbsbsbsbsbsbsbsbsbsbsbsbsbsbsbsbsbsbsbsbsbsbsbsbsbsbsbsbsbsbsbsbsbsbsbsbsbsbsbsbsbsbsbsbsbsbsbsbsbsbsbsbsbsbsbsbsbsbsbsbsbsbsbsbsbsbsbsbsbsbsbsbsbsbsbsbsbsbsbsbsbsbsbsbsbsbsbsbsbsbsbsbsbsbsbsbsbsbsbsbsbsbsbsbsbsbsbsbsbsbsbsbsbsbsbsbsbsbsbsbsbsbsbsbsbsbsbsbsbsbsbsbsbsbsbsbsbsbsbsbsbsbsbsbsbsbsbsbsbsbsbsbsbsb.